target datalayout = "e-m:e-p270:32:32-p271:32:32-p272:64:64-i64:64-i128:128-f80:128-n8:16:32:64-S128"
target triple = "x86_64-pc-linux-gnu"

%struct.AVFilterContext = type { ptr, ptr, ptr, ptr, ptr, i32, ptr, ptr, i32, ptr, ptr, i32, i32, ptr, ptr, ptr, ptr, i32, ptr, i32, i32 }
%struct.ShowFreqsContext = type { ptr, i32, i32, i32, i32, i32, i32, i32, i32, i32, i32, ptr, ptr, %struct.AVChannelLayout, ptr, ptr, ptr, ptr, ptr, ptr, ptr, float, float, i32, i32, i32, i32, i32, float, ptr, i64, i64, %struct.AVRational }
%struct.AVChannelLayout = type { i32, i32, %union.anon.1, ptr }
%union.anon.1 = type { i64 }
%struct.AVRational = type { i32, i32 }

; Function Attrs: cold nounwind optsize uwtable
define internal void @uninit(ptr noundef %0) #0 {
  %2 = alloca ptr, align 8
  %3 = alloca ptr, align 8
  %4 = alloca i32, align 4
  store ptr %0, ptr %2, align 8, !tbaa !4
  call void @llvm.lifetime.start.p0(i64 8, ptr %3) #13
  %5 = load ptr, ptr %2, align 8, !tbaa !4
  %6 = getelementptr inbounds nuw %struct.AVFilterContext, ptr %5, i32 0, i32 9
  %7 = load ptr, ptr %6, align 8, !tbaa !9
  store ptr %7, ptr %3, align 8, !tbaa !22
  call void @llvm.lifetime.start.p0(i64 4, ptr %4) #13
  %8 = load ptr, ptr %3, align 8, !tbaa !22
  %9 = getelementptr inbounds nuw %struct.ShowFreqsContext, ptr %8, i32 0, i32 13
  call void @av_channel_layout_uninit(ptr noundef %9)
  %10 = load ptr, ptr %3, align 8, !tbaa !22
  %11 = getelementptr inbounds nuw %struct.ShowFreqsContext, ptr %10, i32 0, i32 14
  call void @av_tx_uninit(ptr noundef %11)
  store i32 0, ptr %4, align 4, !tbaa !24
  br label %12

12:                                               ; preds = %55, %1
  %13 = load i32, ptr %4, align 4, !tbaa !24
  %14 = load ptr, ptr %3, align 8, !tbaa !22
  %15 = getelementptr inbounds nuw %struct.ShowFreqsContext, ptr %14, i32 0, i32 24
  %16 = load i32, ptr %15, align 4, !tbaa !25
  %17 = icmp slt i32 %13, %16
  br i1 %17, label %18, label %58

18:                                               ; preds = %12
  %19 = load ptr, ptr %3, align 8, !tbaa !22
  %20 = getelementptr inbounds nuw %struct.ShowFreqsContext, ptr %19, i32 0, i32 16
  %21 = load ptr, ptr %20, align 8, !tbaa !36
  %22 = icmp ne ptr %21, null
  br i1 %22, label %23, label %30

23:                                               ; preds = %18
  %24 = load ptr, ptr %3, align 8, !tbaa !22
  %25 = getelementptr inbounds nuw %struct.ShowFreqsContext, ptr %24, i32 0, i32 16
  %26 = load ptr, ptr %25, align 8, !tbaa !36
  %27 = load i32, ptr %4, align 4, !tbaa !24
  %28 = sext i32 %27 to i64
  %29 = getelementptr inbounds ptr, ptr %26, i64 %28
  call void @av_freep(ptr noundef %29)
  br label %30

30:                                               ; preds = %23, %18
  %31 = load ptr, ptr %3, align 8, !tbaa !22
  %32 = getelementptr inbounds nuw %struct.ShowFreqsContext, ptr %31, i32 0, i32 17
  %33 = load ptr, ptr %32, align 8, !tbaa !37
  %34 = icmp ne ptr %33, null
  br i1 %34, label %35, label %42

35:                                               ; preds = %30
  %36 = load ptr, ptr %3, align 8, !tbaa !22
  %37 = getelementptr inbounds nuw %struct.ShowFreqsContext, ptr %36, i32 0, i32 17
  %38 = load ptr, ptr %37, align 8, !tbaa !37
  %39 = load i32, ptr %4, align 4, !tbaa !24
  %40 = sext i32 %39 to i64
  %41 = getelementptr inbounds ptr, ptr %38, i64 %40
  call void @av_freep(ptr noundef %41)
  br label %42

42:                                               ; preds = %35, %30
  %43 = load ptr, ptr %3, align 8, !tbaa !22
  %44 = getelementptr inbounds nuw %struct.ShowFreqsContext, ptr %43, i32 0, i32 19
  %45 = load ptr, ptr %44, align 8, !tbaa !38
  %46 = icmp ne ptr %45, null
  br i1 %46, label %47, label %54

47:                                               ; preds = %42
  %48 = load ptr, ptr %3, align 8, !tbaa !22
  %49 = getelementptr inbounds nuw %struct.ShowFreqsContext, ptr %48, i32 0, i32 19
  %50 = load ptr, ptr %49, align 8, !tbaa !38
  %51 = load i32, ptr %4, align 4, !tbaa !24
  %52 = sext i32 %51 to i64
  %53 = getelementptr inbounds ptr, ptr %50, i64 %52
  call void @av_freep(ptr noundef %53)
  br label %54

54:                                               ; preds = %47, %42
  br label %55

55:                                               ; preds = %54
  %56 = load i32, ptr %4, align 4, !tbaa !24
  %57 = add nsw i32 %56, 1
  store i32 %57, ptr %4, align 4, !tbaa !24
  br label %12, !llvm.loop !39

58:                                               ; preds = %12
  %59 = load ptr, ptr %3, align 8, !tbaa !22
  %60 = getelementptr inbounds nuw %struct.ShowFreqsContext, ptr %59, i32 0, i32 12
  call void @av_freep(ptr noundef %60)
  %61 = load ptr, ptr %3, align 8, !tbaa !22
  %62 = getelementptr inbounds nuw %struct.ShowFreqsContext, ptr %61, i32 0, i32 16
  call void @av_freep(ptr noundef %62)
  %63 = load ptr, ptr %3, align 8, !tbaa !22
  %64 = getelementptr inbounds nuw %struct.ShowFreqsContext, ptr %63, i32 0, i32 17
  call void @av_freep(ptr noundef %64)
  %65 = load ptr, ptr %3, align 8, !tbaa !22
  %66 = getelementptr inbounds nuw %struct.ShowFreqsContext, ptr %65, i32 0, i32 19
  call void @av_freep(ptr noundef %66)
  %67 = load ptr, ptr %3, align 8, !tbaa !22
  %68 = getelementptr inbounds nuw %struct.ShowFreqsContext, ptr %67, i32 0, i32 20
  call void @av_freep(ptr noundef %68)
  %69 = load ptr, ptr %3, align 8, !tbaa !22
  %70 = getelementptr inbounds nuw %struct.ShowFreqsContext, ptr %69, i32 0, i32 18
  call void @av_frame_free(ptr noundef %70)
  call void @llvm.lifetime.end.p0(i64 4, ptr %4) #13
  call void @llvm.lifetime.end.p0(i64 8, ptr %3) #13
  ret void
}