; Function Attrs: cold nounwind optsize uwtable
define internal void @uninit(ptr noundef readonly captures(none) %0) #0 {
  %2 = getelementptr inbounds nuw i8, ptr %0, i64 72
  %3 = load ptr, ptr %2, align 8, !tbaa !4
  %4 = getelementptr inbounds nuw i8, ptr %3, i64 64
  tail call void @av_channel_layout_uninit(ptr noundef nonnull %4) #13
  %5 = getelementptr inbounds nuw i8, ptr %3, i64 88
  tail call void @av_tx_uninit(ptr noundef nonnull %5) #13
  %6 = getelementptr inbounds nuw i8, ptr %3, i64 156
  %7 = load i32, ptr %6, align 4, !tbaa !20
  %8 = icmp sgt i32 %7, 0
  br i1 %8, label %.lr.ph, label %._crit_edge

.lr.ph:                                           ; preds = %1
  %9 = getelementptr inbounds nuw i8, ptr %3, i64 104
  %10 = getelementptr inbounds nuw i8, ptr %3, i64 112
  %11 = getelementptr inbounds nuw i8, ptr %3, i64 128
  br label %12

12:                                               ; preds = %.lr.ph, %24
  %indvars.iv = phi i64 [ 0, %.lr.ph ], [ %indvars.iv.next, %24 ]
  %13 = load ptr, ptr %9, align 8, !tbaa !31
  %.not = icmp eq ptr %13, null
  br i1 %.not, label %16, label %14

14:                                               ; preds = %12
  %15 = getelementptr inbounds nuw ptr, ptr %13, i64 %indvars.iv
  tail call void @av_freep(ptr noundef nonnull %15) #13
  br label %16

16:                                               ; preds = %14, %12
  %17 = load ptr, ptr %10, align 8, !tbaa !32
  %.not23 = icmp eq ptr %17, null
  br i1 %.not23, label %20, label %18

18:                                               ; preds = %16
  %19 = getelementptr inbounds nuw ptr, ptr %17, i64 %indvars.iv
  tail call void @av_freep(ptr noundef nonnull %19) #13
  br label %20

20:                                               ; preds = %18, %16
  %21 = load ptr, ptr %11, align 8, !tbaa !33
  %.not24 = icmp eq ptr %21, null
  br i1 %.not24, label %24, label %22

22:                                               ; preds = %20
  %23 = getelementptr inbounds nuw ptr, ptr %21, i64 %indvars.iv
  tail call void @av_freep(ptr noundef nonnull %23) #13
  br label %24

24:                                               ; preds = %20, %22
  %indvars.iv.next = add nuw nsw i64 %indvars.iv, 1
  %25 = load i32, ptr %6, align 4, !tbaa !20
  %26 = sext i32 %25 to i64
  %27 = icmp slt i64 %indvars.iv.next, %26
  br i1 %27, label %12, label %._crit_edge, !llvm.loop !34

._crit_edge:                                      ; preds = %24, %1
  %28 = getelementptr inbounds nuw i8, ptr %3, i64 56
  tail call void @av_freep(ptr noundef nonnull %28) #13
  %29 = getelementptr inbounds nuw i8, ptr %3, i64 104
  tail call void @av_freep(ptr noundef nonnull %29) #13
  %30 = getelementptr inbounds nuw i8, ptr %3, i64 112
  tail call void @av_freep(ptr noundef nonnull %30) #13
  %31 = getelementptr inbounds nuw i8, ptr %3, i64 128
  tail call void @av_freep(ptr noundef nonnull %31) #13
  %32 = getelementptr inbounds nuw i8, ptr %3, i64 136
  tail call void @av_freep(ptr noundef nonnull %32) #13
  %33 = getelementptr inbounds nuw i8, ptr %3, i64 120
  tail call void @av_frame_free(ptr noundef nonnull %33) #13
  ret void
}